target datalayout = "e-m:e-p270:32:32-p271:32:32-p272:64:64-i64:64-i128:128-f80:128-n8:16:32:64-S128"
target triple = "x86_64-pc-linux-gnu"

%"struct.glslang::TSourceLoc" = type { ptr, i32, i32, i32 }
%"class.glslang::TParseContextBase" = type { %"class.glslang::TParseVersions", ptr, ptr, %"class.glslang::TVector", i32, i32, i32, i32, i32, ptr, i8, i8, %"class.glslang::TList", %"class.glslang::TList.9", %"struct.glslang::TPragma", i32, i32, i8, i8, %"class.glslang::TVector.17", ptr, ptr, %struct.TBuiltInResource, ptr, %"class.std::__cxx11::basic_string", %"class.std::function", %"class.std::function.23", %"class.std::function.26", %"class.std::function.28", %"class.std::function.30", ptr, i32, i32, i32, %"class.glslang::TMap.33", i32, %"class.glslang::TMap.40" }
%"class.glslang::TParseVersions" = type { ptr, i8, i32, ptr, i32, i32, %"struct.glslang::SpvVersion", ptr, %"class.glslang::TMap", %"class.glslang::TMap.3", %"class.glslang::TVector", i32, i32, ptr }
%"struct.glslang::SpvVersion" = type <{ i32, i32, i32, i32, i8, [3 x i8] }>
%"class.glslang::TMap" = type { %"class.std::map" }
%"class.std::map" = type { %"class.std::_Rb_tree" }
%"class.std::_Rb_tree" = type { %"struct.std::_Rb_tree<std::__cxx11::basic_string<char, std::char_traits<char>, glslang::pool_allocator<char>>, std::pair<const std::__cxx11::basic_string<char, std::char_traits<char>, glslang::pool_allocator<char>>, glslang::TExtensionBehavior>, std::_Select1st<std::pair<const std::__cxx11::basic_string<char, std::char_traits<char>, glslang::pool_allocator<char>>, glslang::TExtensionBehavior>>, std::less<std::__cxx11::basic_string<char, std::char_traits<char>, glslang::pool_allocator<char>>>, glslang::pool_allocator<std::pair<const std::__cxx11::basic_string<char, std::char_traits<char>, glslang::pool_allocator<char>>, glslang::TExtensionBehavior>>>::_Rb_tree_impl" }
%"struct.std::_Rb_tree<std::__cxx11::basic_string<char, std::char_traits<char>, glslang::pool_allocator<char>>, std::pair<const std::__cxx11::basic_string<char, std::char_traits<char>, glslang::pool_allocator<char>>, glslang::TExtensionBehavior>, std::_Select1st<std::pair<const std::__cxx11::basic_string<char, std::char_traits<char>, glslang::pool_allocator<char>>, glslang::TExtensionBehavior>>, std::less<std::__cxx11::basic_string<char, std::char_traits<char>, glslang::pool_allocator<char>>>, glslang::pool_allocator<std::pair<const std::__cxx11::basic_string<char, std::char_traits<char>, glslang::pool_allocator<char>>, glslang::TExtensionBehavior>>>::_Rb_tree_impl" = type { %"class.glslang::pool_allocator", %"struct.std::_Rb_tree_key_compare", %"struct.std::_Rb_tree_header" }
%"class.glslang::pool_allocator" = type { ptr }
%"struct.std::_Rb_tree_key_compare" = type { %"struct.std::less" }
%"struct.std::less" = type { i8 }
%"struct.std::_Rb_tree_header" = type { %"struct.std::_Rb_tree_node_base", i64 }
%"struct.std::_Rb_tree_node_base" = type { i32, ptr, ptr, ptr }
%"class.glslang::TMap.3" = type { %"class.std::map.4" }
%"class.std::map.4" = type { %"class.std::_Rb_tree.5" }
%"class.std::_Rb_tree.5" = type { %"struct.std::_Rb_tree<std::__cxx11::basic_string<char, std::char_traits<char>, glslang::pool_allocator<char>>, std::pair<const std::__cxx11::basic_string<char, std::char_traits<char>, glslang::pool_allocator<char>>, unsigned int>, std::_Select1st<std::pair<const std::__cxx11::basic_string<char, std::char_traits<char>, glslang::pool_allocator<char>>, unsigned int>>, std::less<std::__cxx11::basic_string<char, std::char_traits<char>, glslang::pool_allocator<char>>>, glslang::pool_allocator<std::pair<const std::__cxx11::basic_string<char, std::char_traits<char>, glslang::pool_allocator<char>>, unsigned int>>>::_Rb_tree_impl" }
%"struct.std::_Rb_tree<std::__cxx11::basic_string<char, std::char_traits<char>, glslang::pool_allocator<char>>, std::pair<const std::__cxx11::basic_string<char, std::char_traits<char>, glslang::pool_allocator<char>>, unsigned int>, std::_Select1st<std::pair<const std::__cxx11::basic_string<char, std::char_traits<char>, glslang::pool_allocator<char>>, unsigned int>>, std::less<std::__cxx11::basic_string<char, std::char_traits<char>, glslang::pool_allocator<char>>>, glslang::pool_allocator<std::pair<const std::__cxx11::basic_string<char, std::char_traits<char>, glslang::pool_allocator<char>>, unsigned int>>>::_Rb_tree_impl" = type { %"class.glslang::pool_allocator.6", %"struct.std::_Rb_tree_key_compare", %"struct.std::_Rb_tree_header" }
%"class.glslang::pool_allocator.6" = type { ptr }
%"class.glslang::TVector" = type { %"class.std::vector" }
%"class.std::vector" = type { %"struct.std::_Vector_base" }
%"struct.std::_Vector_base" = type { %"struct.std::_Vector_base<std::__cxx11::basic_string<char, std::char_traits<char>, glslang::pool_allocator<char>>, glslang::pool_allocator<std::__cxx11::basic_string<char, std::char_traits<char>, glslang::pool_allocator<char>>>>::_Vector_impl" }
%"struct.std::_Vector_base<std::__cxx11::basic_string<char, std::char_traits<char>, glslang::pool_allocator<char>>, glslang::pool_allocator<std::__cxx11::basic_string<char, std::char_traits<char>, glslang::pool_allocator<char>>>>::_Vector_impl" = type { %"class.glslang::pool_allocator.7", %"struct.std::_Vector_base<std::__cxx11::basic_string<char, std::char_traits<char>, glslang::pool_allocator<char>>, glslang::pool_allocator<std::__cxx11::basic_string<char, std::char_traits<char>, glslang::pool_allocator<char>>>>::_Vector_impl_data" }
%"class.glslang::pool_allocator.7" = type { ptr }
%"struct.std::_Vector_base<std::__cxx11::basic_string<char, std::char_traits<char>, glslang::pool_allocator<char>>, glslang::pool_allocator<std::__cxx11::basic_string<char, std::char_traits<char>, glslang::pool_allocator<char>>>>::_Vector_impl_data" = type { ptr, ptr, ptr }
%"class.glslang::TList" = type { %"class.std::__cxx11::list" }
%"class.std::__cxx11::list" = type { %"class.std::__cxx11::_List_base" }
%"class.std::__cxx11::_List_base" = type { %"struct.std::__cxx11::_List_base<glslang::TVector<TIntermNode *> *, glslang::pool_allocator<glslang::TVector<TIntermNode *> *>>::_List_impl" }
%"struct.std::__cxx11::_List_base<glslang::TVector<TIntermNode *> *, glslang::pool_allocator<glslang::TVector<TIntermNode *> *>>::_List_impl" = type { %"class.glslang::pool_allocator.8", %"struct.std::__detail::_List_node_header" }
%"class.glslang::pool_allocator.8" = type { ptr }
%"struct.std::__detail::_List_node_header" = type { %"struct.std::__detail::_List_node_base", i64 }
%"struct.std::__detail::_List_node_base" = type { ptr, ptr }
%"class.glslang::TList.9" = type { %"class.std::__cxx11::list.10" }
%"class.std::__cxx11::list.10" = type { %"class.std::__cxx11::_List_base.11" }
%"class.std::__cxx11::_List_base.11" = type { %"struct.std::__cxx11::_List_base<int, glslang::pool_allocator<int>>::_List_impl" }
%"struct.std::__cxx11::_List_base<int, glslang::pool_allocator<int>>::_List_impl" = type { %"class.glslang::pool_allocator.12", %"struct.std::__detail::_List_node_header" }
%"class.glslang::pool_allocator.12" = type { ptr }
%"struct.glslang::TPragma" = type { i8, i8, %"class.glslang::TPragmaTable" }
%"class.glslang::TPragmaTable" = type { %"class.glslang::TMap.13" }
%"class.glslang::TMap.13" = type { %"class.std::map.14" }
%"class.std::map.14" = type { %"class.std::_Rb_tree.15" }
%"class.std::_Rb_tree.15" = type { %"struct.std::_Rb_tree<std::__cxx11::basic_string<char, std::char_traits<char>, glslang::pool_allocator<char>>, std::pair<const std::__cxx11::basic_string<char, std::char_traits<char>, glslang::pool_allocator<char>>, std::__cxx11::basic_string<char, std::char_traits<char>, glslang::pool_allocator<char>>>, std::_Select1st<std::pair<const std::__cxx11::basic_string<char, std::char_traits<char>, glslang::pool_allocator<char>>, std::__cxx11::basic_string<char, std::char_traits<char>, glslang::pool_allocator<char>>>>, std::less<std::__cxx11::basic_string<char, std::char_traits<char>, glslang::pool_allocator<char>>>, glslang::pool_allocator<std::pair<const std::__cxx11::basic_string<char, std::char_traits<char>, glslang::pool_allocator<char>>, std::__cxx11::basic_string<char, std::char_traits<char>, glslang::pool_allocator<char>>>>>::_Rb_tree_impl" }
%"struct.std::_Rb_tree<std::__cxx11::basic_string<char, std::char_traits<char>, glslang::pool_allocator<char>>, std::pair<const std::__cxx11::basic_string<char, std::char_traits<char>, glslang::pool_allocator<char>>, std::__cxx11::basic_string<char, std::char_traits<char>, glslang::pool_allocator<char>>>, std::_Select1st<std::pair<const std::__cxx11::basic_string<char, std::char_traits<char>, glslang::pool_allocator<char>>, std::__cxx11::basic_string<char, std::char_traits<char>, glslang::pool_allocator<char>>>>, std::less<std::__cxx11::basic_string<char, std::char_traits<char>, glslang::pool_allocator<char>>>, glslang::pool_allocator<std::pair<const std::__cxx11::basic_string<char, std::char_traits<char>, glslang::pool_allocator<char>>, std::__cxx11::basic_string<char, std::char_traits<char>, glslang::pool_allocator<char>>>>>::_Rb_tree_impl" = type { %"class.glslang::pool_allocator.16", %"struct.std::_Rb_tree_key_compare", %"struct.std::_Rb_tree_header" }
%"class.glslang::pool_allocator.16" = type { ptr }
%"class.glslang::TVector.17" = type { %"class.std::vector.18" }
%"class.std::vector.18" = type { %"struct.std::_Vector_base.19" }
%"struct.std::_Vector_base.19" = type { %"struct.std::_Vector_base<glslang::TSymbol *, glslang::pool_allocator<glslang::TSymbol *>>::_Vector_impl" }
%"struct.std::_Vector_base<glslang::TSymbol *, glslang::pool_allocator<glslang::TSymbol *>>::_Vector_impl" = type { %"class.glslang::pool_allocator.20", %"struct.std::_Vector_base<glslang::TSymbol *, glslang::pool_allocator<glslang::TSymbol *>>::_Vector_impl_data" }
%"class.glslang::pool_allocator.20" = type { ptr }
%"struct.std::_Vector_base<glslang::TSymbol *, glslang::pool_allocator<glslang::TSymbol *>>::_Vector_impl_data" = type { ptr, ptr, ptr }
%struct.TBuiltInResource = type { i32, i32, i32, i32, i32, i32, i32, i32, i32, i32, i32, i32, i32, i32, i32, i32, i32, i32, i32, i32, i32, i32, i32, i32, i32, i32, i32, i32, i32, i32, i32, i32, i32, i32, i32, i32, i32, i32, i32, i32, i32, i32, i32, i32, i32, i32, i32, i32, i32, i32, i32, i32, i32, i32, i32, i32, i32, i32, i32, i32, i32, i32, i32, i32, i32, i32, i32, i32, i32, i32, i32, i32, i32, i32, i32, i32, i32, i32, i32, i32, i32, i32, i32, i32, i32, i32, i32, i32, i32, i32, i32, i32, i32, i32, i32, i32, i32, i32, i32, i32, i32, i32, %struct.TLimits }
%struct.TLimits = type { i8, i8, i8, i8, i8, i8, i8, i8, i8 }
%"class.std::__cxx11::basic_string" = type { %"struct.std::__cxx11::basic_string<char, std::char_traits<char>, glslang::pool_allocator<char>>::_Alloc_hider", i64, %union.anon.22 }
%"struct.std::__cxx11::basic_string<char, std::char_traits<char>, glslang::pool_allocator<char>>::_Alloc_hider" = type { %"class.glslang::pool_allocator.21", ptr }
%"class.glslang::pool_allocator.21" = type { ptr }
%union.anon.22 = type { i64, [8 x i8] }
%"class.std::function" = type { %"class.std::_Function_base", ptr }
%"class.std::_Function_base" = type { %"union.std::_Any_data", ptr }
%"union.std::_Any_data" = type { %"union.std::_Nocopy_types" }
%"union.std::_Nocopy_types" = type { { i64, i64 } }
%"class.std::function.23" = type { %"class.std::_Function_base", ptr }
%"class.std::function.26" = type { %"class.std::_Function_base", ptr }
%"class.std::function.28" = type { %"class.std::_Function_base", ptr }
%"class.std::function.30" = type { %"class.std::_Function_base", ptr }
%"class.glslang::TMap.33" = type { %"class.std::map.34" }
%"class.std::map.34" = type { %"class.std::_Rb_tree.35" }
%"class.std::_Rb_tree.35" = type { %"struct.std::_Rb_tree<int, std::pair<const int, glslang::TVariable *>, std::_Select1st<std::pair<const int, glslang::TVariable *>>, std::less<int>, glslang::pool_allocator<std::pair<const int, glslang::TVariable *>>>::_Rb_tree_impl" }
%"struct.std::_Rb_tree<int, std::pair<const int, glslang::TVariable *>, std::_Select1st<std::pair<const int, glslang::TVariable *>>, std::less<int>, glslang::pool_allocator<std::pair<const int, glslang::TVariable *>>>::_Rb_tree_impl" = type { %"class.glslang::pool_allocator.36", %"struct.std::_Rb_tree_key_compare.37", %"struct.std::_Rb_tree_header" }
%"class.glslang::pool_allocator.36" = type { ptr }
%"struct.std::_Rb_tree_key_compare.37" = type { %"struct.std::less.38" }
%"struct.std::less.38" = type { i8 }
%"class.glslang::TMap.40" = type { %"class.std::map.41" }
%"class.std::map.41" = type { %"class.std::_Rb_tree.42" }
%"class.std::_Rb_tree.42" = type { %"struct.std::_Rb_tree<int, std::pair<const int, int>, std::_Select1st<std::pair<const int, int>>, std::less<int>, glslang::pool_allocator<std::pair<const int, int>>>::_Rb_tree_impl" }
%"struct.std::_Rb_tree<int, std::pair<const int, int>, std::_Select1st<std::pair<const int, int>>, std::less<int>, glslang::pool_allocator<std::pair<const int, int>>>::_Rb_tree_impl" = type { %"class.glslang::pool_allocator.43", %"struct.std::_Rb_tree_key_compare.37", %"struct.std::_Rb_tree_header" }
%"class.glslang::pool_allocator.43" = type { ptr }
%"class.glslang::TScanContext" = type <{ ptr, ptr, i8, i8, i8, i8, [4 x i8], %"struct.glslang::TSourceLoc", ptr, ptr, ptr, i32, [4 x i8] }>
%"class.glslang::TSymbolTable" = type { %"class.std::vector.129", i64, i8, i8, i32 }
%"class.std::vector.129" = type { %"struct.std::_Vector_base.130" }
%"struct.std::_Vector_base.130" = type { %"struct.std::_Vector_base<glslang::TSymbolTableLevel *, std::allocator<glslang::TSymbolTableLevel *>>::_Vector_impl" }
%"struct.std::_Vector_base<glslang::TSymbolTableLevel *, std::allocator<glslang::TSymbolTableLevel *>>::_Vector_impl" = type { %"struct.std::_Vector_base<glslang::TSymbolTableLevel *, std::allocator<glslang::TSymbolTableLevel *>>::_Vector_impl_data" }
%"struct.std::_Vector_base<glslang::TSymbolTableLevel *, std::allocator<glslang::TSymbolTableLevel *>>::_Vector_impl_data" = type { ptr, ptr, ptr }

@.str.446 = private unnamed_addr constant [1 x i8] zeroinitializer, align 1
@.str.501 = private unnamed_addr constant [15 x i8] c"Reserved word.\00", align 1
@.str.503 = private unnamed_addr constant [51 x i8] c"future reserved word in ES 300 and keyword in GLSL\00", align 1

; Function Attrs: mustprogress nounwind uwtable
define linkonce_odr noundef i64 @_ZNKSt6vectorIPN7glslang17TSymbolTableLevelESaIS2_EE4sizeEv(ptr noundef nonnull align 8 dereferenceable(24) %0) #0 comdat align 2 {
  %2 = alloca ptr, align 8
  store ptr %0, ptr %2, align 8
  %3 = load ptr, ptr %2, align 8
  %4 = getelementptr inbounds %"struct.std::_Vector_base.130", ptr %3, i32 0, i32 0
  %5 = getelementptr inbounds %"struct.std::_Vector_base<glslang::TSymbolTableLevel *, std::allocator<glslang::TSymbolTableLevel *>>::_Vector_impl_data", ptr %4, i32 0, i32 1
  %6 = load ptr, ptr %5, align 8
  %7 = getelementptr inbounds %"struct.std::_Vector_base.130", ptr %3, i32 0, i32 0
  %8 = getelementptr inbounds %"struct.std::_Vector_base<glslang::TSymbolTableLevel *, std::allocator<glslang::TSymbolTableLevel *>>::_Vector_impl_data", ptr %7, i32 0, i32 0
  %9 = load ptr, ptr %8, align 8
  %10 = ptrtoint ptr %6 to i64
  %11 = ptrtoint ptr %9 to i64
  %12 = sub i64 %10, %11
  %13 = sdiv exact i64 %12, 8
  ret i64 %13
}

; Function Attrs: mustprogress nounwind uwtable
define linkonce_odr noundef zeroext i1 @_ZN7glslang12TSymbolTable14isBuiltInLevelEi(i32 noundef %0) #0 comdat align 2 {
  %2 = alloca i32, align 4
  store i32 %0, ptr %2, align 4
  %3 = load i32, ptr %2, align 4
  %4 = icmp sle i32 %3, 2
  ret i1 %4
}

; Function Attrs: mustprogress nounwind uwtable
define linkonce_odr noundef i32 @_ZNK7glslang12TSymbolTable12currentLevelEv(ptr noundef nonnull align 8 dereferenceable(40) %0) #0 comdat align 2 {
  %2 = alloca ptr, align 8
  store ptr %0, ptr %2, align 8
  %3 = load ptr, ptr %2, align 8
  %4 = getelementptr inbounds %"class.glslang::TSymbolTable", ptr %3, i32 0, i32 0
  %5 = call noundef i64 @_ZNKSt6vectorIPN7glslang17TSymbolTableLevelESaIS2_EE4sizeEv(ptr noundef nonnull align 8 dereferenceable(24) %4) #12
  %6 = trunc i64 %5 to i32
  %7 = sub nsw i32 %6, 1
  ret i32 %7
}

; Function Attrs: mustprogress nounwind uwtable
define noundef i32 @_ZN7glslang12TScanContext12reservedWordEv(ptr noundef nonnull align 8 dereferenceable(76) %0) #0 align 2 {
  %2 = alloca ptr, align 8
  store ptr %0, ptr %2, align 8
  %3 = load ptr, ptr %2, align 8
  %4 = getelementptr inbounds %"class.glslang::TScanContext", ptr %3, i32 0, i32 1
  %5 = load ptr, ptr %4, align 8
  %6 = getelementptr inbounds %"class.glslang::TParseContextBase", ptr %5, i32 0, i32 2
  %7 = load ptr, ptr %6, align 8
  %8 = call noundef zeroext i1 @_ZN7glslang12TSymbolTable14atBuiltInLevelEv(ptr noundef nonnull align 8 dereferenceable(40) %7)
  br i1 %8, label %18, label %9

9:                                                ; preds = %1
  %10 = getelementptr inbounds %"class.glslang::TScanContext", ptr %3, i32 0, i32 1
  %11 = load ptr, ptr %10, align 8
  %12 = getelementptr inbounds %"class.glslang::TScanContext", ptr %3, i32 0, i32 7
  %13 = getelementptr inbounds %"class.glslang::TScanContext", ptr %3, i32 0, i32 10
  %14 = load ptr, ptr %13, align 8
  %15 = load ptr, ptr %11, align 8
  %16 = getelementptr inbounds ptr, ptr %15, i64 43
  %17 = load ptr, ptr %16, align 8
  call void (ptr, ptr, ptr, ptr, ptr, ...) %17(ptr noundef nonnull align 8 dereferenceable(1280) %11, ptr noundef nonnull align 8 dereferenceable(24) %12, ptr noundef @.str.501, ptr noundef %14, ptr noundef @.str.446, ptr noundef @.str.446)
  br label %18

18:                                               ; preds = %9, %1
  ret i32 0
}

; Function Attrs: mustprogress nounwind uwtable
define linkonce_odr noundef zeroext i1 @_ZNK7glslang14TParseVersions19isForwardCompatibleEv(ptr noundef nonnull align 8 dereferenceable(224) %0) #0 comdat align 2 {
  %2 = alloca ptr, align 8
  store ptr %0, ptr %2, align 8
  %3 = load ptr, ptr %2, align 8
  %4 = getelementptr inbounds %"class.glslang::TParseVersions", ptr %3, i32 0, i32 1
  %5 = load i8, ptr %4, align 8
  %6 = trunc i8 %5 to i1
  ret i1 %6
}

; Function Attrs: mustprogress nounwind uwtable
define linkonce_odr noundef zeroext i1 @_ZNK7glslang14TParseVersions11isEsProfileEv(ptr noundef nonnull align 8 dereferenceable(224) %0) #0 comdat align 2 {
  %2 = alloca ptr, align 8
  store ptr %0, ptr %2, align 8
  %3 = load ptr, ptr %2, align 8
  %4 = getelementptr inbounds %"class.glslang::TParseVersions", ptr %3, i32 0, i32 2
  %5 = load i32, ptr %4, align 4
  %6 = icmp eq i32 %5, 8
  ret i1 %6
}

; Function Attrs: mustprogress nounwind uwtable
define linkonce_odr noundef zeroext i1 @_ZN7glslang12TSymbolTable14atBuiltInLevelEv(ptr noundef nonnull align 8 dereferenceable(40) %0) #0 comdat align 2 {
  %2 = alloca ptr, align 8
  store ptr %0, ptr %2, align 8
  %3 = load ptr, ptr %2, align 8
  %4 = call noundef i32 @_ZNK7glslang12TSymbolTable12currentLevelEv(ptr noundef nonnull align 8 dereferenceable(40) %3)
  %5 = call noundef zeroext i1 @_ZN7glslang12TSymbolTable14isBuiltInLevelEi(i32 noundef %4)
  ret i1 %5
}

; Function Attrs: mustprogress nounwind uwtable
define noundef i32 @_ZN7glslang12TScanContext20es30ReservedFromGLSLEi(ptr noundef nonnull align 8 dereferenceable(76) %0, i32 noundef %1) #0 align 2 {
  %3 = alloca i32, align 4
  %4 = alloca ptr, align 8
  %5 = alloca i32, align 4
  store ptr %0, ptr %4, align 8
  store i32 %1, ptr %5, align 4
  %6 = load ptr, ptr %4, align 8
  %7 = getelementptr inbounds %"class.glslang::TScanContext", ptr %6, i32 0, i32 1
  %8 = load ptr, ptr %7, align 8
  %9 = getelementptr inbounds %"class.glslang::TParseContextBase", ptr %8, i32 0, i32 2
  %10 = load ptr, ptr %9, align 8
  %11 = call noundef zeroext i1 @_ZN7glslang12TSymbolTable14atBuiltInLevelEv(ptr noundef nonnull align 8 dereferenceable(40) %10)
  br i1 %11, label %12, label %15

12:                                               ; preds = %2
  %13 = getelementptr inbounds %"class.glslang::TScanContext", ptr %6, i32 0, i32 11
  %14 = load i32, ptr %13, align 8
  store i32 %14, ptr %3, align 4
  br label %67

15:                                               ; preds = %2
  %16 = getelementptr inbounds %"class.glslang::TScanContext", ptr %6, i32 0, i32 1
  %17 = load ptr, ptr %16, align 8
  %18 = call noundef zeroext i1 @_ZNK7glslang14TParseVersions11isEsProfileEv(ptr noundef nonnull align 8 dereferenceable(224) %17)
  br i1 %18, label %19, label %25

19:                                               ; preds = %15
  %20 = getelementptr inbounds %"class.glslang::TScanContext", ptr %6, i32 0, i32 1
  %21 = load ptr, ptr %20, align 8
  %22 = getelementptr inbounds %"class.glslang::TParseVersions", ptr %21, i32 0, i32 4
  %23 = load i32, ptr %22, align 8
  %24 = icmp slt i32 %23, 300
  br i1 %24, label %36, label %25

25:                                               ; preds = %19, %15
  %26 = getelementptr inbounds %"class.glslang::TScanContext", ptr %6, i32 0, i32 1
  %27 = load ptr, ptr %26, align 8
  %28 = call noundef zeroext i1 @_ZNK7glslang14TParseVersions11isEsProfileEv(ptr noundef nonnull align 8 dereferenceable(224) %27)
  br i1 %28, label %51, label %29

29:                                               ; preds = %25
  %30 = getelementptr inbounds %"class.glslang::TScanContext", ptr %6, i32 0, i32 1
  %31 = load ptr, ptr %30, align 8
  %32 = getelementptr inbounds %"class.glslang::TParseVersions", ptr %31, i32 0, i32 4
  %33 = load i32, ptr %32, align 8
  %34 = load i32, ptr %5, align 4
  %35 = icmp slt i32 %33, %34
  br i1 %35, label %36, label %51

36:                                               ; preds = %29, %19
  %37 = getelementptr inbounds %"class.glslang::TScanContext", ptr %6, i32 0, i32 1
  %38 = load ptr, ptr %37, align 8
  %39 = call noundef zeroext i1 @_ZNK7glslang14TParseVersions19isForwardCompatibleEv(ptr noundef nonnull align 8 dereferenceable(224) %38)
  br i1 %39, label %40, label %49

40:                                               ; preds = %36
  %41 = getelementptr inbounds %"class.glslang::TScanContext", ptr %6, i32 0, i32 1
  %42 = load ptr, ptr %41, align 8
  %43 = getelementptr inbounds %"class.glslang::TScanContext", ptr %6, i32 0, i32 7
  %44 = getelementptr inbounds %"class.glslang::TScanContext", ptr %6, i32 0, i32 10
  %45 = load ptr, ptr %44, align 8
  %46 = load ptr, ptr %42, align 8
  %47 = getelementptr inbounds ptr, ptr %46, i64 44
  %48 = load ptr, ptr %47, align 8
  call void (ptr, ptr, ptr, ptr, ptr, ...) %48(ptr noundef nonnull align 8 dereferenceable(1280) %42, ptr noundef nonnull align 8 dereferenceable(24) %43, ptr noundef @.str.503, ptr noundef %45, ptr noundef @.str.446)
  br label %49

49:                                               ; preds = %40, %36
  %50 = call noundef i32 @_ZN7glslang12TScanContext16identifierOrTypeEv(ptr noundef nonnull align 8 dereferenceable(76) %6)
  store i32 %50, ptr %3, align 4
  br label %67

51:                                               ; preds = %29, %25
  %52 = getelementptr inbounds %"class.glslang::TScanContext", ptr %6, i32 0, i32 1
  %53 = load ptr, ptr %52, align 8
  %54 = call noundef zeroext i1 @_ZNK7glslang14TParseVersions11isEsProfileEv(ptr noundef nonnull align 8 dereferenceable(224) %53)
  br i1 %54, label %55, label %63

55:                                               ; preds = %51
  %56 = getelementptr inbounds %"class.glslang::TScanContext", ptr %6, i32 0, i32 1
  %57 = load ptr, ptr %56, align 8
  %58 = getelementptr inbounds %"class.glslang::TParseVersions", ptr %57, i32 0, i32 4
  %59 = load i32, ptr %58, align 8
  %60 = icmp sge i32 %59, 300
  br i1 %60, label %61, label %63

61:                                               ; preds = %55
  %62 = call noundef i32 @_ZN7glslang12TScanContext12reservedWordEv(ptr noundef nonnull align 8 dereferenceable(76) %6)
  br label %63

63:                                               ; preds = %61, %55, %51
  br label %64

64:                                               ; preds = %63
  %65 = getelementptr inbounds %"class.glslang::TScanContext", ptr %6, i32 0, i32 11
  %66 = load i32, ptr %65, align 8
  store i32 %66, ptr %3, align 4
  br label %67

67:                                               ; preds = %64, %49, %12
  %68 = load i32, ptr %3, align 4
  ret i32 %68
}