; Function Attrs: mustprogress nounwind uwtable
define noundef i32 @_ZN7glslang12TScanContext20es30ReservedFromGLSLEi(ptr noundef nonnull align 8 dereferenceable(76) %0, i32 noundef %1) local_unnamed_addr #0 align 2 {
  %3 = getelementptr inbounds nuw i8, ptr %0, i64 8
  %4 = load ptr, ptr %3, align 8
  %5 = getelementptr inbounds nuw i8, ptr %4, i64 232
  %6 = load ptr, ptr %5, align 8
  %7 = getelementptr inbounds nuw i8, ptr %6, i64 8
  %8 = load ptr, ptr %7, align 8
  %9 = load ptr, ptr %6, align 8
  %10 = ptrtoint ptr %8 to i64
  %11 = ptrtoint ptr %9 to i64
  %12 = sub i64 %10, %11
  %13 = lshr exact i64 %12, 3
  %14 = trunc i64 %13 to i32
  %15 = icmp slt i32 %14, 4
  br i1 %15, label %16, label %19

16:                                               ; preds = %2
  %17 = getelementptr inbounds nuw i8, ptr %0, i64 72
  %18 = load i32, ptr %17, align 8
  br label %51

19:                                               ; preds = %2
  %20 = getelementptr inbounds nuw i8, ptr %4, i64 12
  %21 = load i32, ptr %20, align 4
  %22 = icmp eq i32 %21, 8
  %23 = getelementptr inbounds nuw i8, ptr %4, i64 24
  %24 = load i32, ptr %23, align 8
  br i1 %22, label %25, label %27

25:                                               ; preds = %19
  %26 = icmp slt i32 %24, 300
  br i1 %26, label %29, label %_ZN7glslang12TScanContext12reservedWordEv.exit

27:                                               ; preds = %19
  %28 = icmp slt i32 %24, %1
  br i1 %28, label %29, label %48

29:                                               ; preds = %27, %25
  %30 = getelementptr inbounds nuw i8, ptr %4, i64 8
  %31 = load i8, ptr %30, align 8
  %32 = trunc i8 %31 to i1
  br i1 %32, label %33, label %40

33:                                               ; preds = %29
  %34 = getelementptr inbounds nuw i8, ptr %0, i64 24
  %35 = getelementptr inbounds nuw i8, ptr %0, i64 64
  %36 = load ptr, ptr %35, align 8
  %37 = load ptr, ptr %4, align 8
  %38 = getelementptr inbounds nuw i8, ptr %37, i64 352
  %39 = load ptr, ptr %38, align 8
  tail call void (ptr, ptr, ptr, ptr, ptr, ...) %39(ptr noundef nonnull align 8 dereferenceable(1280) %4, ptr noundef nonnull align 8 dereferenceable(24) %34, ptr noundef nonnull @.str.503, ptr noundef %36, ptr noundef nonnull @.str.446) #15
  br label %40

40:                                               ; preds = %33, %29
  %41 = tail call noundef i32 @_ZN7glslang12TScanContext16identifierOrTypeEv(ptr noundef nonnull align 8 dereferenceable(76) %0)
  br label %51

_ZN7glslang12TScanContext12reservedWordEv.exit:   ; preds = %25
  %42 = getelementptr inbounds nuw i8, ptr %0, i64 24
  %43 = getelementptr inbounds nuw i8, ptr %0, i64 64
  %44 = load ptr, ptr %43, align 8
  %45 = load ptr, ptr %4, align 8
  %46 = getelementptr inbounds nuw i8, ptr %45, i64 344
  %47 = load ptr, ptr %46, align 8
  tail call void (ptr, ptr, ptr, ptr, ptr, ...) %47(ptr noundef nonnull align 8 dereferenceable(1280) %4, ptr noundef nonnull align 8 dereferenceable(24) %42, ptr noundef nonnull @.str.501, ptr noundef %44, ptr noundef nonnull @.str.446, ptr noundef nonnull @.str.446) #15
  br label %48

48:                                               ; preds = %27, %_ZN7glslang12TScanContext12reservedWordEv.exit
  %49 = getelementptr inbounds nuw i8, ptr %0, i64 72
  %50 = load i32, ptr %49, align 8
  br label %51

51:                                               ; preds = %48, %40, %16
  %.0 = phi i32 [ %18, %16 ], [ %41, %40 ], [ %50, %48 ]
  ret i32 %.0
}